target datalayout = "e-m:e-p270:32:32-p271:32:32-p272:64:64-i64:64-i128:128-f80:128-n8:16:32:64-S128"
target triple = "x86_64-pc-linux-gnu"

%struct.decoder_process_data_st = type { ptr, ptr, i64, i64, i8 }
%struct.ossl_decoder_ctx_st = type { ptr, ptr, i32, ptr, ptr, ptr, ptr, %struct.ossl_passphrase_data_st, i32 }
%struct.ossl_passphrase_data_st = type { i32, %union.anon, i8, ptr, i64 }
%union.anon = type { %struct.anon }
%struct.anon = type { ptr, i64 }

@.str = private unnamed_addr constant [46 x i8] c"../openssl/crypto/encode_decode/decoder_lib.c\00", align 1
@__func__.OSSL_DECODER_from_bio = private unnamed_addr constant [22 x i8] c"OSSL_DECODER_from_bio\00", align 1
@.str.1 = private unnamed_addr constant [141 x i8] c"No decoders were found. For standard decoders you need at least one of the default or base providers available. Did you forget to load them?\00", align 1
@.str.2 = private unnamed_addr constant [2 x i8] c" \00", align 1
@.str.3 = private unnamed_addr constant [1 x i8] zeroinitializer, align 1
@.str.4 = private unnamed_addr constant [13 x i8] c"Input type: \00", align 1
@.str.5 = private unnamed_addr constant [18 x i8] c"Input structure: \00", align 1
@.str.6 = private unnamed_addr constant [3 x i8] c", \00", align 1
@.str.7 = private unnamed_addr constant [42 x i8] c"No supported data to decode. %s%s%s%s%s%s\00", align 1

; Function Attrs: inlinehint nounwind uwtable
define internal i32 @sk_OSSL_DECODER_INSTANCE_num(ptr noundef %0) #6 {
  %2 = alloca ptr, align 8
  store ptr %0, ptr %2, align 8, !tbaa !77
  %3 = load ptr, ptr %2, align 8, !tbaa !77
  %4 = call i32 @OPENSSL_sk_num(ptr noundef %3)
  ret i32 %4
}

; Function Attrs: nounwind uwtable
define i32 @OSSL_DECODER_CTX_get_num_decoders(ptr noundef %0) #0 {
  %2 = alloca i32, align 4
  %3 = alloca ptr, align 8
  store ptr %0, ptr %3, align 8, !tbaa !3
  %4 = load ptr, ptr %3, align 8, !tbaa !3
  %5 = icmp eq ptr %4, null
  br i1 %5, label %11, label %6

6:                                                ; preds = %1
  %7 = load ptr, ptr %3, align 8, !tbaa !3
  %8 = getelementptr inbounds nuw %struct.ossl_decoder_ctx_st, ptr %7, i32 0, i32 3
  %9 = load ptr, ptr %8, align 8, !tbaa !24
  %10 = icmp eq ptr %9, null
  br i1 %10, label %11, label %12

11:                                               ; preds = %6, %1
  store i32 0, ptr %2, align 4
  br label %17

12:                                               ; preds = %6
  %13 = load ptr, ptr %3, align 8, !tbaa !3
  %14 = getelementptr inbounds nuw %struct.ossl_decoder_ctx_st, ptr %13, i32 0, i32 3
  %15 = load ptr, ptr %14, align 8, !tbaa !24
  %16 = call i32 @sk_OSSL_DECODER_INSTANCE_num(ptr noundef %15)
  store i32 %16, ptr %2, align 4
  br label %17

17:                                               ; preds = %12, %11
  %18 = load i32, ptr %2, align 4
  ret i32 %18
}

; Function Attrs: nounwind uwtable
define i32 @OSSL_DECODER_from_bio(ptr noundef %0, ptr noundef %1) #0 {
  %3 = alloca i32, align 4
  %4 = alloca ptr, align 8
  %5 = alloca ptr, align 8
  %6 = alloca %struct.decoder_process_data_st, align 8
  %7 = alloca i32, align 4
  %8 = alloca ptr, align 8
  %9 = alloca i64, align 8
  %10 = alloca i32, align 4
  %11 = alloca ptr, align 8
  %12 = alloca ptr, align 8
  %13 = alloca ptr, align 8
  %14 = alloca ptr, align 8
  %15 = alloca ptr, align 8
  %16 = alloca ptr, align 8
  store ptr %0, ptr %4, align 8, !tbaa !3
  store ptr %1, ptr %5, align 8, !tbaa !8
  call void @llvm.lifetime.start.p0(i64 40, ptr %6) #7
  call void @llvm.lifetime.start.p0(i64 4, ptr %7) #7
  store i32 0, ptr %7, align 4, !tbaa !10
  call void @llvm.lifetime.start.p0(i64 8, ptr %8) #7
  store ptr null, ptr %8, align 8, !tbaa !8
  call void @llvm.lifetime.start.p0(i64 8, ptr %9) #7
  %17 = load ptr, ptr %5, align 8, !tbaa !8
  %18 = icmp eq ptr %17, null
  br i1 %18, label %19, label %20

19:                                               ; preds = %2
  call void @ERR_new()
  call void @ERR_set_debug(ptr noundef @.str, i32 noundef 55, ptr noundef @__func__.OSSL_DECODER_from_bio)
  call void (i32, i32, ptr, ...) @ERR_set_error(i32 noundef 60, i32 noundef 786690, ptr noundef null)
  store i32 0, ptr %3, align 4
  store i32 1, ptr %10, align 4
  br label %139

20:                                               ; preds = %2
  %21 = load ptr, ptr %4, align 8, !tbaa !3
  %22 = call i32 @OSSL_DECODER_CTX_get_num_decoders(ptr noundef %21)
  %23 = icmp eq i32 %22, 0
  br i1 %23, label %24, label %25

24:                                               ; preds = %20
  call void @ERR_new()
  call void @ERR_set_debug(ptr noundef @.str, i32 noundef 60, ptr noundef @__func__.OSSL_DECODER_from_bio)
  call void (i32, i32, ptr, ...) @ERR_set_error(i32 noundef 60, i32 noundef 102, ptr noundef @.str.1)
  store i32 0, ptr %3, align 4
  store i32 1, ptr %10, align 4
  br label %139

25:                                               ; preds = %20
  %26 = call i64 @ERR_peek_last_error()
  store i64 %26, ptr %9, align 8, !tbaa !12
  %27 = load ptr, ptr %5, align 8, !tbaa !8
  %28 = call i64 @BIO_ctrl(ptr noundef %27, i32 noundef 133, i64 noundef 0, ptr noundef null)
  %29 = trunc i64 %28 to i32
  %30 = icmp slt i32 %29, 0
  br i1 %30, label %31, label %41

31:                                               ; preds = %25
  %32 = call ptr @BIO_f_readbuffer()
  %33 = call ptr @BIO_new(ptr noundef %32)
  store ptr %33, ptr %8, align 8, !tbaa !8
  %34 = load ptr, ptr %8, align 8, !tbaa !8
  %35 = icmp eq ptr %34, null
  br i1 %35, label %36, label %37

36:                                               ; preds = %31
  store i32 0, ptr %3, align 4
  store i32 1, ptr %10, align 4
  br label %139

37:                                               ; preds = %31
  %38 = load ptr, ptr %8, align 8, !tbaa !8
  %39 = load ptr, ptr %5, align 8, !tbaa !8
  %40 = call ptr @BIO_push(ptr noundef %38, ptr noundef %39)
  store ptr %40, ptr %5, align 8, !tbaa !8
  br label %41

41:                                               ; preds = %37, %25
  call void @llvm.memset.p0.i64(ptr align 8 %6, i8 0, i64 40, i1 false)
  %42 = load ptr, ptr %4, align 8, !tbaa !3
  %43 = getelementptr inbounds nuw %struct.decoder_process_data_st, ptr %6, i32 0, i32 0
  store ptr %42, ptr %43, align 8, !tbaa !14
  %44 = load ptr, ptr %5, align 8, !tbaa !8
  %45 = getelementptr inbounds nuw %struct.decoder_process_data_st, ptr %6, i32 0, i32 1
  store ptr %44, ptr %45, align 8, !tbaa !16
  %46 = load ptr, ptr %4, align 8, !tbaa !3
  %47 = getelementptr inbounds nuw %struct.ossl_decoder_ctx_st, ptr %46, i32 0, i32 7
  %48 = call i32 @ossl_pw_enable_passphrase_caching(ptr noundef %47)
  %49 = call i32 @decoder_process(ptr noundef null, ptr noundef %6)
  store i32 %49, ptr %7, align 4, !tbaa !10
  %50 = getelementptr inbounds nuw %struct.decoder_process_data_st, ptr %6, i32 0, i32 4
  %51 = load i8, ptr %50, align 8
  %52 = lshr i8 %51, 1
  %53 = and i8 %52, 1
  %54 = zext i8 %53 to i32
  %55 = icmp ne i32 %54, 0
  br i1 %55, label %127, label %56

56:                                               ; preds = %41
  call void @llvm.lifetime.start.p0(i64 8, ptr %11) #7
  %57 = load ptr, ptr %4, align 8, !tbaa !3
  %58 = getelementptr inbounds nuw %struct.ossl_decoder_ctx_st, ptr %57, i32 0, i32 0
  %59 = load ptr, ptr %58, align 8, !tbaa !17
  %60 = icmp ne ptr %59, null
  br i1 %60, label %61, label %66

61:                                               ; preds = %56
  %62 = load ptr, ptr %4, align 8, !tbaa !3
  %63 = getelementptr inbounds nuw %struct.ossl_decoder_ctx_st, ptr %62, i32 0, i32 1
  %64 = load ptr, ptr %63, align 8, !tbaa !22
  %65 = icmp ne ptr %64, null
  br label %66

66:                                               ; preds = %61, %56
  %67 = phi i1 [ false, %56 ], [ %65, %61 ]
  %68 = select i1 %67, ptr @.str.2, ptr @.str.3
  store ptr %68, ptr %11, align 8, !tbaa !23
  call void @llvm.lifetime.start.p0(i64 8, ptr %12) #7
  %69 = load ptr, ptr %4, align 8, !tbaa !3
  %70 = getelementptr inbounds nuw %struct.ossl_decoder_ctx_st, ptr %69, i32 0, i32 0
  %71 = load ptr, ptr %70, align 8, !tbaa !17
  %72 = icmp ne ptr %71, null
  %73 = select i1 %72, ptr @.str.4, ptr @.str.3
  store ptr %73, ptr %12, align 8, !tbaa !23
  call void @llvm.lifetime.start.p0(i64 8, ptr %13) #7
  %74 = load ptr, ptr %4, align 8, !tbaa !3
  %75 = getelementptr inbounds nuw %struct.ossl_decoder_ctx_st, ptr %74, i32 0, i32 1
  %76 = load ptr, ptr %75, align 8, !tbaa !22
  %77 = icmp ne ptr %76, null
  %78 = select i1 %77, ptr @.str.5, ptr @.str.3
  store ptr %78, ptr %13, align 8, !tbaa !23
  call void @llvm.lifetime.start.p0(i64 8, ptr %14) #7
  %79 = load ptr, ptr %4, align 8, !tbaa !3
  %80 = getelementptr inbounds nuw %struct.ossl_decoder_ctx_st, ptr %79, i32 0, i32 0
  %81 = load ptr, ptr %80, align 8, !tbaa !17
  %82 = icmp ne ptr %81, null
  br i1 %82, label %83, label %88

83:                                               ; preds = %66
  %84 = load ptr, ptr %4, align 8, !tbaa !3
  %85 = getelementptr inbounds nuw %struct.ossl_decoder_ctx_st, ptr %84, i32 0, i32 1
  %86 = load ptr, ptr %85, align 8, !tbaa !22
  %87 = icmp ne ptr %86, null
  br label %88

88:                                               ; preds = %83, %66
  %89 = phi i1 [ false, %66 ], [ %87, %83 ]
  %90 = select i1 %89, ptr @.str.6, ptr @.str.3
  store ptr %90, ptr %14, align 8, !tbaa !23
  call void @llvm.lifetime.start.p0(i64 8, ptr %15) #7
  %91 = load ptr, ptr %4, align 8, !tbaa !3
  %92 = getelementptr inbounds nuw %struct.ossl_decoder_ctx_st, ptr %91, i32 0, i32 0
  %93 = load ptr, ptr %92, align 8, !tbaa !17
  %94 = icmp ne ptr %93, null
  br i1 %94, label %95, label %99

95:                                               ; preds = %88
  %96 = load ptr, ptr %4, align 8, !tbaa !3
  %97 = getelementptr inbounds nuw %struct.ossl_decoder_ctx_st, ptr %96, i32 0, i32 0
  %98 = load ptr, ptr %97, align 8, !tbaa !17
  br label %100

99:                                               ; preds = %88
  br label %100

100:                                              ; preds = %99, %95
  %101 = phi ptr [ %98, %95 ], [ @.str.3, %99 ]
  store ptr %101, ptr %15, align 8, !tbaa !23
  call void @llvm.lifetime.start.p0(i64 8, ptr %16) #7
  %102 = load ptr, ptr %4, align 8, !tbaa !3
  %103 = getelementptr inbounds nuw %struct.ossl_decoder_ctx_st, ptr %102, i32 0, i32 1
  %104 = load ptr, ptr %103, align 8, !tbaa !22
  %105 = icmp ne ptr %104, null
  br i1 %105, label %106, label %110

106:                                              ; preds = %100
  %107 = load ptr, ptr %4, align 8, !tbaa !3
  %108 = getelementptr inbounds nuw %struct.ossl_decoder_ctx_st, ptr %107, i32 0, i32 1
  %109 = load ptr, ptr %108, align 8, !tbaa !22
  br label %111

110:                                              ; preds = %100
  br label %111

111:                                              ; preds = %110, %106
  %112 = phi ptr [ %109, %106 ], [ @.str.3, %110 ]
  store ptr %112, ptr %16, align 8, !tbaa !23
  %113 = call i64 @ERR_peek_last_error()
  %114 = load i64, ptr %9, align 8, !tbaa !12
  %115 = icmp eq i64 %113, %114
  br i1 %115, label %119, label %116

116:                                              ; preds = %111
  %117 = call i64 @ERR_peek_error()
  %118 = icmp eq i64 %117, 0
  br i1 %118, label %119, label %126

119:                                              ; preds = %116, %111
  call void @ERR_new()
  call void @ERR_set_debug(ptr noundef @.str, i32 noundef 102, ptr noundef @__func__.OSSL_DECODER_from_bio)
  %120 = load ptr, ptr %11, align 8, !tbaa !23
  %121 = load ptr, ptr %12, align 8, !tbaa !23
  %122 = load ptr, ptr %15, align 8, !tbaa !23
  %123 = load ptr, ptr %14, align 8, !tbaa !23
  %124 = load ptr, ptr %13, align 8, !tbaa !23
  %125 = load ptr, ptr %16, align 8, !tbaa !23
  call void (i32, i32, ptr, ...) @ERR_set_error(i32 noundef 60, i32 noundef 524556, ptr noundef @.str.7, ptr noundef %120, ptr noundef %121, ptr noundef %122, ptr noundef %123, ptr noundef %124, ptr noundef %125)
  br label %126

126:                                              ; preds = %119, %116
  store i32 0, ptr %7, align 4, !tbaa !10
  call void @llvm.lifetime.end.p0(i64 8, ptr %16) #7
  call void @llvm.lifetime.end.p0(i64 8, ptr %15) #7
  call void @llvm.lifetime.end.p0(i64 8, ptr %14) #7
  call void @llvm.lifetime.end.p0(i64 8, ptr %13) #7
  call void @llvm.lifetime.end.p0(i64 8, ptr %12) #7
  call void @llvm.lifetime.end.p0(i64 8, ptr %11) #7
  br label %127

127:                                              ; preds = %126, %41
  %128 = load ptr, ptr %4, align 8, !tbaa !3
  %129 = getelementptr inbounds nuw %struct.ossl_decoder_ctx_st, ptr %128, i32 0, i32 7
  call void @ossl_pw_clear_passphrase_cache(ptr noundef %129)
  %130 = load ptr, ptr %8, align 8, !tbaa !8
  %131 = icmp ne ptr %130, null
  br i1 %131, label %132, label %137

132:                                              ; preds = %127
  %133 = load ptr, ptr %8, align 8, !tbaa !8
  %134 = call ptr @BIO_pop(ptr noundef %133)
  %135 = load ptr, ptr %8, align 8, !tbaa !8
  %136 = call i32 @BIO_free(ptr noundef %135)
  br label %137

137:                                              ; preds = %132, %127
  %138 = load i32, ptr %7, align 4, !tbaa !10
  store i32 %138, ptr %3, align 4
  store i32 1, ptr %10, align 4
  br label %139

139:                                              ; preds = %137, %36, %24, %19
  call void @llvm.lifetime.end.p0(i64 8, ptr %9) #7
  call void @llvm.lifetime.end.p0(i64 8, ptr %8) #7
  call void @llvm.lifetime.end.p0(i64 4, ptr %7) #7
  call void @llvm.lifetime.end.p0(i64 40, ptr %6) #7
  %140 = load i32, ptr %3, align 4
  ret i32 %140
}