; Function Attrs: nounwind uwtable
define i32 @OSSL_DECODER_from_bio(ptr noundef %0, ptr noundef %1) local_unnamed_addr #0 {
  %3 = alloca %struct.decoder_process_data_st, align 8
  call void @llvm.lifetime.start.p0(i64 40, ptr nonnull %3) #8
  %4 = icmp eq ptr %1, null
  br i1 %4, label %5, label %6

5:                                                ; preds = %2
  tail call void @ERR_new() #8
  tail call void @ERR_set_debug(ptr noundef nonnull @.str, i32 noundef 55, ptr noundef nonnull @__func__.OSSL_DECODER_from_bio) #8
  tail call void (i32, i32, ptr, ...) @ERR_set_error(i32 noundef 60, i32 noundef 786690, ptr noundef null) #8
  br label %51

6:                                                ; preds = %2
  %7 = icmp eq ptr %0, null
  br i1 %7, label %OSSL_DECODER_CTX_get_num_decoders.exit.thread, label %8

8:                                                ; preds = %6
  %9 = getelementptr inbounds nuw i8, ptr %0, i64 24
  %10 = load ptr, ptr %9, align 8, !tbaa !3
  %11 = icmp eq ptr %10, null
  br i1 %11, label %OSSL_DECODER_CTX_get_num_decoders.exit.thread, label %OSSL_DECODER_CTX_get_num_decoders.exit

OSSL_DECODER_CTX_get_num_decoders.exit:           ; preds = %8
  %12 = tail call i32 @OPENSSL_sk_num(ptr noundef nonnull %10) #8
  %13 = icmp eq i32 %12, 0
  br i1 %13, label %OSSL_DECODER_CTX_get_num_decoders.exit.thread, label %14

OSSL_DECODER_CTX_get_num_decoders.exit.thread:    ; preds = %6, %8, %OSSL_DECODER_CTX_get_num_decoders.exit
  tail call void @ERR_new() #8
  tail call void @ERR_set_debug(ptr noundef nonnull @.str, i32 noundef 60, ptr noundef nonnull @__func__.OSSL_DECODER_from_bio) #8
  tail call void (i32, i32, ptr, ...) @ERR_set_error(i32 noundef 60, i32 noundef 102, ptr noundef nonnull @.str.1) #8
  br label %51

14:                                               ; preds = %OSSL_DECODER_CTX_get_num_decoders.exit
  %15 = tail call i64 @ERR_peek_last_error() #8
  %16 = tail call i64 @BIO_ctrl(ptr noundef nonnull %1, i32 noundef 133, i64 noundef 0, ptr noundef null) #8
  %17 = and i64 %16, 2147483648
  %.not = icmp eq i64 %17, 0
  br i1 %.not, label %24, label %18

18:                                               ; preds = %14
  %19 = tail call ptr @BIO_f_readbuffer() #8
  %20 = tail call ptr @BIO_new(ptr noundef %19) #8
  %21 = icmp eq ptr %20, null
  br i1 %21, label %51, label %22

22:                                               ; preds = %18
  %23 = tail call ptr @BIO_push(ptr noundef nonnull %20, ptr noundef nonnull %1) #8
  br label %24

24:                                               ; preds = %22, %14
  %.033 = phi ptr [ %20, %22 ], [ null, %14 ]
  %.031 = phi ptr [ %23, %22 ], [ %1, %14 ]
  %25 = getelementptr inbounds nuw i8, ptr %3, i64 16
  call void @llvm.memset.p0.i64(ptr noundef nonnull align 8 dereferenceable(40) %25, i8 0, i64 24, i1 false)
  store ptr %0, ptr %3, align 8, !tbaa !13
  %26 = getelementptr inbounds nuw i8, ptr %3, i64 8
  store ptr %.031, ptr %26, align 8, !tbaa !17
  %27 = getelementptr inbounds nuw i8, ptr %0, i64 56
  %28 = tail call i32 @ossl_pw_enable_passphrase_caching(ptr noundef nonnull %27) #8
  %29 = call i32 @decoder_process(ptr noundef null, ptr noundef nonnull %3)
  %30 = getelementptr inbounds nuw i8, ptr %3, i64 32
  %31 = load i8, ptr %30, align 8
  %32 = and i8 %31, 2
  %.not38 = icmp eq i8 %32, 0
  br i1 %.not38, label %._crit_edge, label %47

._crit_edge:                                      ; preds = %24
  %33 = load ptr, ptr %0, align 8, !tbaa !18
  %.not39 = icmp eq ptr %33, null
  %.phi.trans.insert = getelementptr inbounds nuw i8, ptr %0, i64 8
  %.pre = load ptr, ptr %.phi.trans.insert, align 8, !tbaa !19
  %.not40 = icmp eq ptr %.pre, null
  %34 = select i1 %.not39, ptr @.str.3, ptr %33
  %35 = select i1 %.not39, ptr @.str.3, ptr @.str.4
  %36 = select i1 %.not39, i1 true, i1 %.not40
  %37 = select i1 %36, ptr @.str.3, ptr @.str.2
  %.not42 = icmp eq ptr %.pre, null
  %38 = select i1 %.not42, ptr @.str.3, ptr @.str.5
  %39 = select i1 %.not39, i1 true, i1 %.not42
  %spec.select = select i1 %39, ptr @.str.3, ptr @.str.6
  %40 = select i1 %.not42, ptr @.str.3, ptr %.pre
  %41 = tail call i64 @ERR_peek_last_error() #8
  %42 = icmp eq i64 %41, %15
  br i1 %42, label %46, label %43

43:                                               ; preds = %._crit_edge
  %44 = tail call i64 @ERR_peek_error() #8
  %45 = icmp eq i64 %44, 0
  br i1 %45, label %46, label %47

46:                                               ; preds = %43, %._crit_edge
  tail call void @ERR_new() #8
  tail call void @ERR_set_debug(ptr noundef nonnull @.str, i32 noundef 102, ptr noundef nonnull @__func__.OSSL_DECODER_from_bio) #8
  tail call void (i32, i32, ptr, ...) @ERR_set_error(i32 noundef 60, i32 noundef 524556, ptr noundef nonnull @.str.7, ptr noundef nonnull %37, ptr noundef nonnull %35, ptr noundef nonnull %34, ptr noundef nonnull %spec.select, ptr noundef nonnull %38, ptr noundef nonnull %40) #8
  br label %47

47:                                               ; preds = %43, %46, %24
  %.032 = phi i32 [ %29, %24 ], [ 0, %46 ], [ 0, %43 ]
  tail call void @ossl_pw_clear_passphrase_cache(ptr noundef nonnull %27) #8
  %.not45 = icmp eq ptr %.033, null
  br i1 %.not45, label %51, label %48

48:                                               ; preds = %47
  %49 = tail call ptr @BIO_pop(ptr noundef nonnull %.033) #8
  %50 = tail call i32 @BIO_free(ptr noundef nonnull %.033) #8
  br label %51

51:                                               ; preds = %47, %48, %18, %OSSL_DECODER_CTX_get_num_decoders.exit.thread, %5
  %.0 = phi i32 [ 0, %5 ], [ 0, %OSSL_DECODER_CTX_get_num_decoders.exit.thread ], [ 0, %18 ], [ %.032, %48 ], [ %.032, %47 ]
  call void @llvm.lifetime.end.p0(i64 40, ptr nonnull %3) #8
  ret i32 %.0
}